target datalayout = "e-m:e-p270:32:32-p271:32:32-p272:64:64-i64:64-i128:128-f80:128-n8:16:32:64-S128"
target triple = "x86_64-pc-linux-gnu"

%struct.child_process = type { %struct.strvec, %struct.strvec, i32, i32, i64, ptr, ptr, i32, i32, i32, ptr, i16, ptr }
%struct.strvec = type { ptr, i64, i64 }
%struct.winsize = type { i16, i16, i16, i16 }

@old_fd1 = internal global i32 -1, align 4
@.str = private unnamed_addr constant [17 x i8] c"GIT_PAGER_IN_USE\00", align 1
@old_fd2 = internal global i32 -1, align 4
@.str.1 = private unnamed_addr constant [10 x i8] c"GIT_PAGER\00", align 1
@pager_program = internal global ptr null, align 8
@.str.2 = private unnamed_addr constant [6 x i8] c"PAGER\00", align 1
@.str.3 = private unnamed_addr constant [5 x i8] c"less\00", align 1
@.str.4 = private unnamed_addr constant [4 x i8] c"cat\00", align 1
@setup_pager.once = internal global i32 0, align 4
@.str.6 = private unnamed_addr constant [3 x i8] c"%d\00", align 1
@term_columns_guessed = internal global i32 0, align 4
@.str.7 = private unnamed_addr constant [8 x i8] c"COLUMNS\00", align 1
@.str.8 = private unnamed_addr constant [5 x i8] c"true\00", align 1
@pager_process = internal global %struct.child_process zeroinitializer, align 8
@.str.9 = private unnamed_addr constant [29 x i8] c"unable to execute pager '%s'\00", align 1
@term_columns.term_columns_at_startup = internal global i32 0, align 4

; Function Attrs: inlinehint nounwind willreturn memory(read) uwtable
define available_externally i32 @atoi(ptr noundef nonnull %0) #6 {
  %2 = alloca ptr, align 8
  store ptr %0, ptr %2, align 8, !tbaa !13
  %3 = load ptr, ptr %2, align 8, !tbaa !13
  %4 = call i64 @strtol(ptr noundef %3, ptr noundef null, i32 noundef 10) #8
  %5 = trunc i64 %4 to i32
  ret i32 %5
}

; Function Attrs: nounwind uwtable
define dso_local i32 @term_columns() #0 {
  %1 = alloca i32, align 4
  %2 = alloca ptr, align 8
  %3 = alloca i32, align 4
  %4 = alloca i32, align 4
  %5 = alloca %struct.winsize, align 2
  call void @llvm.lifetime.start.p0(i64 8, ptr %2) #8
  call void @llvm.lifetime.start.p0(i64 4, ptr %3) #8
  %6 = load i32, ptr @term_columns.term_columns_at_startup, align 4, !tbaa !4
  %7 = icmp ne i32 %6, 0
  br i1 %7, label %8, label %10

8:                                                ; preds = %0
  %9 = load i32, ptr @term_columns.term_columns_at_startup, align 4, !tbaa !4
  store i32 %9, ptr %1, align 4
  store i32 1, ptr %4, align 4
  br label %35

10:                                               ; preds = %0
  store i32 80, ptr @term_columns.term_columns_at_startup, align 4, !tbaa !4
  store i32 1, ptr @term_columns_guessed, align 4, !tbaa !4
  %11 = call ptr @getenv(ptr noundef @.str.7) #8
  store ptr %11, ptr %2, align 8, !tbaa !13
  %12 = load ptr, ptr %2, align 8, !tbaa !13
  %13 = icmp ne ptr %12, null
  br i1 %13, label %14, label %20

14:                                               ; preds = %10
  %15 = load ptr, ptr %2, align 8, !tbaa !13
  %16 = call i32 @atoi(ptr noundef %15) #9
  store i32 %16, ptr %3, align 4, !tbaa !4
  %17 = icmp sgt i32 %16, 0
  br i1 %17, label %18, label %20

18:                                               ; preds = %14
  %19 = load i32, ptr %3, align 4, !tbaa !4
  store i32 %19, ptr @term_columns.term_columns_at_startup, align 4, !tbaa !4
  store i32 0, ptr @term_columns_guessed, align 4, !tbaa !4
  br label %33

20:                                               ; preds = %14, %10
  call void @llvm.lifetime.start.p0(i64 8, ptr %5) #8
  %21 = call i32 (i32, i64, ...) @ioctl(i32 noundef 1, i64 noundef 21523, ptr noundef %5) #8
  %22 = icmp ne i32 %21, 0
  br i1 %22, label %32, label %23

23:                                               ; preds = %20
  %24 = getelementptr inbounds nuw %struct.winsize, ptr %5, i32 0, i32 1
  %25 = load i16, ptr %24, align 2, !tbaa !32
  %26 = zext i16 %25 to i32
  %27 = icmp ne i32 %26, 0
  br i1 %27, label %28, label %32

28:                                               ; preds = %23
  %29 = getelementptr inbounds nuw %struct.winsize, ptr %5, i32 0, i32 1
  %30 = load i16, ptr %29, align 2, !tbaa !32
  %31 = zext i16 %30 to i32
  store i32 %31, ptr @term_columns.term_columns_at_startup, align 4, !tbaa !4
  store i32 0, ptr @term_columns_guessed, align 4, !tbaa !4
  br label %32

32:                                               ; preds = %28, %23, %20
  call void @llvm.lifetime.end.p0(i64 8, ptr %5) #8
  br label %33

33:                                               ; preds = %32, %18
  %34 = load i32, ptr @term_columns.term_columns_at_startup, align 4, !tbaa !4
  store i32 %34, ptr %1, align 4
  store i32 1, ptr %4, align 4
  br label %35

35:                                               ; preds = %33, %8
  call void @llvm.lifetime.end.p0(i64 4, ptr %3) #8
  call void @llvm.lifetime.end.p0(i64 8, ptr %2) #8
  %36 = load i32, ptr %1, align 4
  ret i32 %36
}

; Function Attrs: nounwind uwtable
define dso_local ptr @git_pager(ptr noundef %0, i32 noundef %1) #0 {
  %3 = alloca ptr, align 8
  %4 = alloca ptr, align 8
  %5 = alloca i32, align 4
  %6 = alloca ptr, align 8
  %7 = alloca i32, align 4
  store ptr %0, ptr %4, align 8, !tbaa !11
  store i32 %1, ptr %5, align 4, !tbaa !4
  call void @llvm.lifetime.start.p0(i64 8, ptr %6) #8
  %8 = load i32, ptr %5, align 4, !tbaa !4
  %9 = icmp ne i32 %8, 0
  br i1 %9, label %11, label %10

10:                                               ; preds = %2
  store ptr null, ptr %3, align 8
  store i32 1, ptr %7, align 4
  br label %42

11:                                               ; preds = %2
  %12 = call ptr @getenv(ptr noundef @.str.1) #8
  store ptr %12, ptr %6, align 8, !tbaa !13
  %13 = load ptr, ptr %6, align 8, !tbaa !13
  %14 = icmp ne ptr %13, null
  br i1 %14, label %22, label %15

15:                                               ; preds = %11
  %16 = load ptr, ptr @pager_program, align 8, !tbaa !13
  %17 = icmp ne ptr %16, null
  br i1 %17, label %20, label %18

18:                                               ; preds = %15
  %19 = load ptr, ptr %4, align 8, !tbaa !11
  call void @read_early_config(ptr noundef %19, ptr noundef @core_pager_config, ptr noundef null)
  br label %20

20:                                               ; preds = %18, %15
  %21 = load ptr, ptr @pager_program, align 8, !tbaa !13
  store ptr %21, ptr %6, align 8, !tbaa !13
  br label %22

22:                                               ; preds = %20, %11
  %23 = load ptr, ptr %6, align 8, !tbaa !13
  %24 = icmp ne ptr %23, null
  br i1 %24, label %27, label %25

25:                                               ; preds = %22
  %26 = call ptr @getenv(ptr noundef @.str.2) #8
  store ptr %26, ptr %6, align 8, !tbaa !13
  br label %27

27:                                               ; preds = %25, %22
  %28 = load ptr, ptr %6, align 8, !tbaa !13
  %29 = icmp ne ptr %28, null
  br i1 %29, label %31, label %30

30:                                               ; preds = %27
  store ptr @.str.3, ptr %6, align 8, !tbaa !13
  br label %31

31:                                               ; preds = %30, %27
  %32 = load ptr, ptr %6, align 8, !tbaa !13
  %33 = load i8, ptr %32, align 1, !tbaa !15
  %34 = icmp ne i8 %33, 0
  br i1 %34, label %35, label %39

35:                                               ; preds = %31
  %36 = load ptr, ptr %6, align 8, !tbaa !13
  %37 = call i32 @strcmp(ptr noundef %36, ptr noundef @.str.4) #9
  %38 = icmp ne i32 %37, 0
  br i1 %38, label %40, label %39

39:                                               ; preds = %35, %31
  store ptr null, ptr %6, align 8, !tbaa !13
  br label %40

40:                                               ; preds = %39, %35
  %41 = load ptr, ptr %6, align 8, !tbaa !13
  store ptr %41, ptr %3, align 8
  store i32 1, ptr %7, align 4
  br label %42

42:                                               ; preds = %40, %10
  call void @llvm.lifetime.end.p0(i64 8, ptr %6) #8
  %43 = load ptr, ptr %3, align 8
  ret ptr %43
}

; Function Attrs: nounwind uwtable
define dso_local void @setup_pager(ptr noundef %0) #0 {
  %2 = alloca ptr, align 8
  %3 = alloca ptr, align 8
  %4 = alloca i32, align 4
  %5 = alloca [64 x i8], align 16
  store ptr %0, ptr %2, align 8, !tbaa !11
  call void @llvm.lifetime.start.p0(i64 8, ptr %3) #8
  %6 = load ptr, ptr %2, align 8, !tbaa !11
  %7 = call i32 @isatty(i32 noundef 1) #8
  %8 = call ptr @git_pager(ptr noundef %6, i32 noundef %7)
  store ptr %8, ptr %3, align 8, !tbaa !13
  %9 = load ptr, ptr %3, align 8, !tbaa !13
  %10 = icmp ne ptr %9, null
  br i1 %10, label %12, label %11

11:                                               ; preds = %1
  store i32 1, ptr %4, align 4
  br label %49

12:                                               ; preds = %1
  call void @llvm.lifetime.start.p0(i64 64, ptr %5) #8
  %13 = getelementptr inbounds [64 x i8], ptr %5, i64 0, i64 0
  %14 = call i32 @term_columns()
  %15 = call i32 (ptr, i64, ptr, ...) @xsnprintf(ptr noundef %13, i64 noundef 64, ptr noundef @.str.6, i32 noundef %14)
  %16 = load i32, ptr @term_columns_guessed, align 4, !tbaa !4
  %17 = icmp ne i32 %16, 0
  br i1 %17, label %21, label %18

18:                                               ; preds = %12
  %19 = getelementptr inbounds [64 x i8], ptr %5, i64 0, i64 0
  %20 = call i32 @setenv(ptr noundef @.str.7, ptr noundef %19, i32 noundef 0) #8
  br label %21

21:                                               ; preds = %18, %12
  call void @llvm.lifetime.end.p0(i64 64, ptr %5) #8
  %22 = call i32 @setenv(ptr noundef @.str, ptr noundef @.str.8, i32 noundef 1) #8
  call void @child_process_init(ptr noundef @pager_process)
  %23 = load ptr, ptr %3, align 8, !tbaa !13
  call void @prepare_pager_args(ptr noundef @pager_process, ptr noundef %23)
  store i32 -1, ptr getelementptr inbounds nuw (%struct.child_process, ptr @pager_process, i32 0, i32 7), align 8, !tbaa !31
  %24 = call ptr @strvec_push(ptr noundef getelementptr inbounds nuw (%struct.child_process, ptr @pager_process, i32 0, i32 1), ptr noundef @.str)
  %25 = call i32 @start_command(ptr noundef @pager_process)
  %26 = icmp ne i32 %25, 0
  br i1 %26, label %27, label %29

27:                                               ; preds = %21
  %28 = load ptr, ptr %3, align 8, !tbaa !13
  call void (ptr, ...) @die(ptr noundef @.str.9, ptr noundef %28) #10
  unreachable

29:                                               ; preds = %21
  %30 = call i32 @dup(i32 noundef 1) #8
  store i32 %30, ptr @old_fd1, align 4, !tbaa !4
  %31 = load i32, ptr getelementptr inbounds nuw (%struct.child_process, ptr @pager_process, i32 0, i32 7), align 8, !tbaa !31
  %32 = call i32 @dup2(i32 noundef %31, i32 noundef 1) #8
  %33 = call i32 @isatty(i32 noundef 2) #8
  %34 = icmp ne i32 %33, 0
  br i1 %34, label %35, label %39

35:                                               ; preds = %29
  %36 = call i32 @dup(i32 noundef 2) #8
  store i32 %36, ptr @old_fd2, align 4, !tbaa !4
  %37 = load i32, ptr getelementptr inbounds nuw (%struct.child_process, ptr @pager_process, i32 0, i32 7), align 8, !tbaa !31
  %38 = call i32 @dup2(i32 noundef %37, i32 noundef 2) #8
  br label %39

39:                                               ; preds = %35, %29
  %40 = load i32, ptr getelementptr inbounds nuw (%struct.child_process, ptr @pager_process, i32 0, i32 7), align 8, !tbaa !31
  %41 = call i32 @close(i32 noundef %40)
  call void @sigchain_push_common(ptr noundef @wait_for_pager_signal)
  %42 = load i32, ptr @setup_pager.once, align 4, !tbaa !4
  %43 = icmp ne i32 %42, 0
  br i1 %43, label %48, label %44

44:                                               ; preds = %39
  %45 = load i32, ptr @setup_pager.once, align 4, !tbaa !4
  %46 = add nsw i32 %45, 1
  store i32 %46, ptr @setup_pager.once, align 4, !tbaa !4
  %47 = call i32 @atexit(ptr noundef @wait_for_pager_atexit) #8
  br label %48

48:                                               ; preds = %44, %39
  store i32 0, ptr %4, align 4
  br label %49

49:                                               ; preds = %48, %11
  call void @llvm.lifetime.end.p0(i64 8, ptr %3) #8
  %50 = load i32, ptr %4, align 4
  switch i32 %50, label %52 [
    i32 0, label %51
    i32 1, label %51
  ]

51:                                               ; preds = %49, %49
  ret void

52:                                               ; preds = %49
  unreachable
}