; Function Attrs: nounwind uwtable
define dso_local void @setup_pager(ptr noundef %0) local_unnamed_addr #0 {
  %2 = alloca %struct.winsize, align 2
  %3 = alloca [64 x i8], align 16
  %4 = tail call i32 @isatty(i32 noundef 1) #12
  %.not.i = icmp eq i32 %4, 0
  br i1 %.not.i, label %git_pager.exit.thread, label %5

5:                                                ; preds = %1
  %6 = tail call ptr @getenv(ptr noundef nonnull @.str.1) #12
  %.not10.i = icmp eq ptr %6, null
  br i1 %.not10.i, label %7, label %.thread.i

7:                                                ; preds = %5
  %8 = load ptr, ptr @pager_program, align 8, !tbaa !11
  %.not11.i = icmp eq ptr %8, null
  br i1 %.not11.i, label %9, label %.thread.i

9:                                                ; preds = %7
  tail call void @read_early_config(ptr noundef %0, ptr noundef nonnull @core_pager_config, ptr noundef null) #12
  %.pr.i = load ptr, ptr @pager_program, align 8, !tbaa !11
  %.not12.i = icmp eq ptr %.pr.i, null
  br i1 %.not12.i, label %10, label %.thread.i

10:                                               ; preds = %9
  %11 = tail call ptr @getenv(ptr noundef nonnull @.str.2) #12
  br label %.thread.i

.thread.i:                                        ; preds = %10, %9, %7, %5
  %.1.i = phi ptr [ %.pr.i, %9 ], [ %11, %10 ], [ %6, %5 ], [ %8, %7 ]
  %.not13.i = icmp eq ptr %.1.i, null
  %spec.store.select.i = select i1 %.not13.i, ptr @.str.3, ptr %.1.i
  %12 = load i8, ptr %spec.store.select.i, align 1, !tbaa !13
  %.not14.i = icmp eq i8 %12, 0
  br i1 %.not14.i, label %git_pager.exit.thread, label %13

13:                                               ; preds = %.thread.i
  %14 = tail call i32 @strcmp(ptr noundef nonnull dereferenceable(1) %spec.store.select.i, ptr noundef nonnull dereferenceable(4) @.str.4) #13
  %.not15.i = icmp eq i32 %14, 0
  br i1 %.not15.i, label %git_pager.exit.thread, label %git_pager.exit

git_pager.exit:                                   ; preds = %13
  call void @llvm.lifetime.start.p0(i64 64, ptr nonnull %3) #12
  %15 = load i32, ptr @term_columns.term_columns_at_startup, align 4, !tbaa !4
  %.not.i8 = icmp eq i32 %15, 0
  br i1 %.not.i8, label %16, label %term_columns.exit

16:                                               ; preds = %git_pager.exit
  store i32 80, ptr @term_columns.term_columns_at_startup, align 4, !tbaa !4
  store i1 true, ptr @term_columns_guessed, align 4
  %17 = tail call ptr @getenv(ptr noundef nonnull @.str.7) #12
  %.not10.i9 = icmp eq ptr %17, null
  br i1 %.not10.i9, label %23, label %18

18:                                               ; preds = %16
  %19 = tail call i64 @strtol(ptr noundef nonnull captures(none) %17, ptr noundef null, i32 noundef 10) #12
  %20 = trunc i64 %19 to i32
  %21 = icmp sgt i32 %20, 0
  br i1 %21, label %22, label %23

22:                                               ; preds = %18
  store i32 %20, ptr @term_columns.term_columns_at_startup, align 4, !tbaa !4
  store i1 false, ptr @term_columns_guessed, align 4
  br label %term_columns.exit

23:                                               ; preds = %18, %16
  call void @llvm.lifetime.start.p0(i64 8, ptr nonnull %2) #12
  %24 = call i32 (i32, i64, ...) @ioctl(i32 noundef 1, i64 noundef 21523, ptr noundef nonnull %2) #12
  %25 = icmp eq i32 %24, 0
  %26 = getelementptr inbounds nuw i8, ptr %2, i64 2
  %27 = load i16, ptr %26, align 2
  %28 = icmp ne i16 %27, 0
  %or.cond.i = select i1 %25, i1 %28, i1 false
  br i1 %or.cond.i, label %29, label %._crit_edge.i

._crit_edge.i:                                    ; preds = %23
  %.pre.pre.i = load i32, ptr @term_columns.term_columns_at_startup, align 4, !tbaa !4
  br label %31

29:                                               ; preds = %23
  %30 = zext i16 %27 to i32
  store i32 %30, ptr @term_columns.term_columns_at_startup, align 4, !tbaa !4
  store i1 false, ptr @term_columns_guessed, align 4
  br label %31

31:                                               ; preds = %29, %._crit_edge.i
  %.pre.i = phi i32 [ %.pre.pre.i, %._crit_edge.i ], [ %30, %29 ]
  call void @llvm.lifetime.end.p0(i64 8, ptr nonnull %2) #12
  br label %term_columns.exit

term_columns.exit:                                ; preds = %git_pager.exit, %22, %31
  %.0.i = phi i32 [ %15, %git_pager.exit ], [ %.pre.i, %31 ], [ %20, %22 ]
  %32 = call i32 (ptr, i64, ptr, ...) @xsnprintf(ptr noundef nonnull %3, i64 noundef 64, ptr noundef nonnull @.str.6, i32 noundef %.0.i) #12
  %.b5 = load i1, ptr @term_columns_guessed, align 4
  br i1 %.b5, label %35, label %33

33:                                               ; preds = %term_columns.exit
  %34 = call i32 @setenv(ptr noundef nonnull @.str.7, ptr noundef nonnull %3, i32 noundef 0) #12
  br label %35

35:                                               ; preds = %33, %term_columns.exit
  call void @llvm.lifetime.end.p0(i64 64, ptr nonnull %3) #12
  %36 = call i32 @setenv(ptr noundef nonnull @.str, ptr noundef nonnull @.str.8, i32 noundef 1) #12
  call void @child_process_init(ptr noundef nonnull @pager_process) #12
  call void @prepare_pager_args(ptr noundef nonnull @pager_process, ptr noundef nonnull %spec.store.select.i)
  store i32 -1, ptr getelementptr inbounds nuw (i8, ptr @pager_process, i64 80), align 8, !tbaa !22
  %37 = call ptr @strvec_push(ptr noundef nonnull getelementptr inbounds nuw (i8, ptr @pager_process, i64 24), ptr noundef nonnull @.str) #12
  %38 = call i32 @start_command(ptr noundef nonnull @pager_process) #12
  %.not6 = icmp eq i32 %38, 0
  br i1 %.not6, label %40, label %39

39:                                               ; preds = %35
  call void (ptr, ...) @die(ptr noundef nonnull @.str.9, ptr noundef nonnull %spec.store.select.i) #14
  unreachable

40:                                               ; preds = %35
  %41 = call i32 @dup(i32 noundef 1) #12
  store i32 %41, ptr @old_fd1, align 4, !tbaa !4
  %42 = load i32, ptr getelementptr inbounds nuw (i8, ptr @pager_process, i64 80), align 8, !tbaa !22
  %43 = call i32 @dup2(i32 noundef %42, i32 noundef 1) #12
  %44 = call i32 @isatty(i32 noundef 2) #12
  %.not7 = icmp eq i32 %44, 0
  br i1 %.not7, label %49, label %45

45:                                               ; preds = %40
  %46 = call i32 @dup(i32 noundef 2) #12
  store i32 %46, ptr @old_fd2, align 4, !tbaa !4
  %47 = load i32, ptr getelementptr inbounds nuw (i8, ptr @pager_process, i64 80), align 8, !tbaa !22
  %48 = call i32 @dup2(i32 noundef %47, i32 noundef 2) #12
  br label %49

49:                                               ; preds = %45, %40
  %50 = load i32, ptr getelementptr inbounds nuw (i8, ptr @pager_process, i64 80), align 8, !tbaa !22
  %51 = call i32 @close(i32 noundef %50) #12
  call void @sigchain_push_common(ptr noundef nonnull @wait_for_pager_signal) #12
  %.b = load i1, ptr @setup_pager.once, align 4
  br i1 %.b, label %git_pager.exit.thread, label %52

52:                                               ; preds = %49
  store i1 true, ptr @setup_pager.once, align 4
  %53 = call i32 @atexit(ptr noundef nonnull @wait_for_pager_atexit) #12
  br label %git_pager.exit.thread

git_pager.exit.thread:                            ; preds = %.thread.i, %13, %1, %49, %52
  ret void
}